target datalayout = "e-m:e-p270:32:32-p271:32:32-p272:64:64-i64:64-i128:128-f80:128-n8:16:32:64-S128"
target triple = "x86_64-pc-linux-gnu"

%struct.TEST_ENCAPDATA = type { ptr, ptr, i64, ptr, i64, ptr, i64, ptr, i64, ptr, i64, ptr, i64, ptr, i64 }

@libctx = internal global ptr null, align 8
@.str.3 = private unnamed_addr constant [38 x i8] c"../openssl/test/evp_pkey_dhkem_test.c\00", align 1
@.str.6 = private unnamed_addr constant [6 x i8] c"P-256\00", align 1
@.str.65 = private unnamed_addr constant [37 x i8] c"EVP_PKEY_encapsulate_init(ctx, NULL)\00", align 1
@.str.74 = private unnamed_addr constant [2 x i8] c"0\00", align 1
@.str.96 = private unnamed_addr constant [53 x i8] c"ctx = EVP_PKEY_CTX_new_from_pkey(libctx, priv, NULL)\00", align 1
@test_ec_invalid_private_key.order = internal constant [32 x i8] c"\FF\FF\FF\FF\00\00\00\00\FF\FF\FF\FF\FF\FF\FF\FF\BC\E6\FA\AD\A7\17\9E\84\F3\B9\CA\C2\FCc%Q", align 16
@.str.136 = private unnamed_addr constant [79 x i8] c"priv = new_raw_private_key(\22P-256\22, order, sizeof(order), t->rpub, t->rpublen)\00", align 1

; Function Attrs: nounwind uwtable
define internal i32 @test_ec_invalid_private_key() #0 {
  %1 = alloca i32, align 4
  %2 = alloca ptr, align 8
  %3 = alloca ptr, align 8
  %4 = alloca ptr, align 8
  call void @llvm.lifetime.start.p0(i64 4, ptr %1) #6
  store i32 0, ptr %1, align 4, !tbaa !10
  call void @llvm.lifetime.start.p0(i64 8, ptr %2) #6
  store ptr null, ptr %2, align 8, !tbaa !17
  call void @llvm.lifetime.start.p0(i64 8, ptr %3) #6
  store ptr null, ptr %3, align 8, !tbaa !19
  call void @llvm.lifetime.start.p0(i64 8, ptr %4) #6
  store ptr @ec_encapdata, ptr %4, align 8, !tbaa !12
  %5 = load ptr, ptr %4, align 8, !tbaa !12
  %6 = getelementptr inbounds nuw %struct.TEST_ENCAPDATA, ptr %5, i32 0, i32 3
  %7 = load ptr, ptr %6, align 8, !tbaa !24
  %8 = load ptr, ptr %4, align 8, !tbaa !12
  %9 = getelementptr inbounds nuw %struct.TEST_ENCAPDATA, ptr %8, i32 0, i32 4
  %10 = load i64, ptr %9, align 8, !tbaa !25
  %11 = call ptr @new_raw_private_key(ptr noundef @.str.6, ptr noundef @test_ec_invalid_private_key.order, i64 noundef 32, ptr noundef %7, i64 noundef %10)
  store ptr %11, ptr %2, align 8, !tbaa !17
  %12 = call i32 @test_ptr(ptr noundef @.str.3, i32 noundef 282, ptr noundef @.str.136, ptr noundef %11)
  %13 = icmp ne i32 %12, 0
  br i1 %13, label %14, label %25

14:                                               ; preds = %0
  %15 = load ptr, ptr @libctx, align 8, !tbaa !15
  %16 = load ptr, ptr %2, align 8, !tbaa !17
  %17 = call ptr @EVP_PKEY_CTX_new_from_pkey(ptr noundef %15, ptr noundef %16, ptr noundef null)
  store ptr %17, ptr %3, align 8, !tbaa !19
  %18 = call i32 @test_ptr(ptr noundef @.str.3, i32 noundef 283, ptr noundef @.str.96, ptr noundef %17)
  %19 = icmp ne i32 %18, 0
  br i1 %19, label %20, label %25

20:                                               ; preds = %14
  %21 = load ptr, ptr %3, align 8, !tbaa !19
  %22 = call i32 @EVP_PKEY_encapsulate_init(ptr noundef %21, ptr noundef null)
  %23 = call i32 @test_int_eq(ptr noundef @.str.3, i32 noundef 284, ptr noundef @.str.65, ptr noundef @.str.74, i32 noundef %22, i32 noundef 0)
  %24 = icmp ne i32 %23, 0
  br label %25

25:                                               ; preds = %20, %14, %0
  %26 = phi i1 [ false, %14 ], [ false, %0 ], [ %24, %20 ]
  %27 = zext i1 %26 to i32
  store i32 %27, ptr %1, align 4, !tbaa !10
  %28 = load ptr, ptr %2, align 8, !tbaa !17
  call void @EVP_PKEY_free(ptr noundef %28)
  %29 = load ptr, ptr %3, align 8, !tbaa !19
  call void @EVP_PKEY_CTX_free(ptr noundef %29)
  %30 = load i32, ptr %1, align 4, !tbaa !10
  call void @llvm.lifetime.end.p0(i64 8, ptr %4) #6
  call void @llvm.lifetime.end.p0(i64 8, ptr %3) #6
  call void @llvm.lifetime.end.p0(i64 8, ptr %2) #6
  call void @llvm.lifetime.end.p0(i64 4, ptr %1) #6
  ret i32 %30
}