; Function Attrs: nounwind uwtable
define internal range(i32 0, 2) i32 @test_ec_invalid_private_key() #0 {
  %1 = tail call fastcc ptr @new_raw_private_key(ptr noundef nonnull @.str.6, ptr noundef nonnull @test_ec_invalid_private_key.order, i64 noundef 32, ptr noundef nonnull @p256_ikmr_pub, i64 noundef 65)
  %2 = tail call i32 @test_ptr(ptr noundef nonnull @.str.3, i32 noundef 282, ptr noundef nonnull @.str.136, ptr noundef %1) #5
  %.not = icmp eq i32 %2, 0
  br i1 %.not, label %12, label %3

3:                                                ; preds = %0
  %4 = load ptr, ptr @libctx, align 8, !tbaa !15
  %5 = tail call ptr @EVP_PKEY_CTX_new_from_pkey(ptr noundef %4, ptr noundef %1, ptr noundef null) #5
  %6 = tail call i32 @test_ptr(ptr noundef nonnull @.str.3, i32 noundef 283, ptr noundef nonnull @.str.96, ptr noundef %5) #5
  %.not6 = icmp eq i32 %6, 0
  br i1 %.not6, label %12, label %7

7:                                                ; preds = %3
  %8 = tail call i32 @EVP_PKEY_encapsulate_init(ptr noundef %5, ptr noundef null) #5
  %9 = tail call i32 @test_int_eq(ptr noundef nonnull @.str.3, i32 noundef 284, ptr noundef nonnull @.str.65, ptr noundef nonnull @.str.74, i32 noundef %8, i32 noundef 0) #5
  %10 = icmp ne i32 %9, 0
  %11 = zext i1 %10 to i32
  br label %12

12:                                               ; preds = %7, %3, %0
  %.0 = phi ptr [ %5, %7 ], [ %5, %3 ], [ null, %0 ]
  %13 = phi i32 [ %11, %7 ], [ 0, %3 ], [ 0, %0 ]
  tail call void @EVP_PKEY_free(ptr noundef %1) #5
  tail call void @EVP_PKEY_CTX_free(ptr noundef %.0) #5
  ret i32 %13
}